; ModuleID = 'source-C-CXX/61/1420.c'
source_filename = "source-C-CXX/61/1420.c"
target datalayout = "e-m:e-p270:32:32-p271:32:32-p272:64:64-i64:64-f80:128-n8:16:32:64-S128"
target triple = "x86_64-pc-linux-gnu"

; Function Attrs: nounwind sspstrong uwtable
define dso_local void @main() local_unnamed_addr #0 {
  %1 = alloca [1000 x i8], align 16
  %2 = getelementptr inbounds [1000 x i8], [1000 x i8]* %1, i64 0, i64 0
  call void @llvm.lifetime.start.p0i8(i64 1000, i8* nonnull %2) #4
  %3 = call i32 (i8*, ...) bitcast (i32 (...)* @gets to i32 (i8*, ...)*)(i8* nonnull %2) #4
  br label %4

4:                                                ; preds = %21, %0
  %5 = phi i32 [ 0, %0 ], [ %26, %21 ]
  %6 = sext i32 %5 to i64
  %7 = getelementptr inbounds [1000 x i8], [1000 x i8]* %1, i64 0, i64 %6
  %8 = load i8, i8* %7, align 1, !tbaa !5
  switch i8 %8, label %21 [
    i8 0, label %27
    i8 32, label %9
  ]

9:                                                ; preds = %4, %9
  %10 = phi i64 [ %11, %9 ], [ %6, %4 ]
  %11 = add nsw i64 %10, 1
  %12 = getelementptr inbounds [1000 x i8], [1000 x i8]* %1, i64 0, i64 %11
  %13 = load i8, i8* %12, align 1, !tbaa !5
  %14 = icmp eq i8 %13, 32
  br i1 %14, label %9, label %15, !llvm.loop !8

15:                                               ; preds = %9
  %16 = trunc i64 %10 to i32
  %17 = shl i64 %10, 32
  %18 = ashr exact i64 %17, 32
  %19 = getelementptr inbounds [1000 x i8], [1000 x i8]* %1, i64 0, i64 %18
  %20 = load i8, i8* %19, align 1, !tbaa !5
  br label %21

21:                                               ; preds = %4, %15
  %22 = phi i8 [ %20, %15 ], [ %8, %4 ]
  %23 = phi i32 [ %16, %15 ], [ %5, %4 ]
  %24 = sext i8 %22 to i32
  %25 = call i32 @putchar(i32 %24)
  %26 = add nsw i32 %23, 1
  br label %4, !llvm.loop !10

27:                                               ; preds = %4
  %28 = call i32 @putchar(i32 10)
  call void @llvm.lifetime.end.p0i8(i64 1000, i8* nonnull %2) #4
  ret void
}

; Function Attrs: argmemonly mustprogress nofree nosync nounwind willreturn
declare void @llvm.lifetime.start.p0i8(i64 immarg, i8* nocapture) #1

declare i32 @gets(...) local_unnamed_addr #2

; Function Attrs: argmemonly mustprogress nofree nosync nounwind willreturn
declare void @llvm.lifetime.end.p0i8(i64 immarg, i8* nocapture) #1

; Function Attrs: nofree nounwind
declare noundef i32 @putchar(i32 noundef) local_unnamed_addr #3


!llvm.module.flags = !{!0, !1, !2, !3}
!llvm.ident = !{!4}

!0 = !{i32 1, !"wchar_size", i32 4}
!1 = !{i32 7, !"PIC Level", i32 2}
!2 = !{i32 7, !"PIE Level", i32 2}
!3 = !{i32 7, !"uwtable", i32 1}
!4 = !{!"clang version 13.0.0"}
!5 = !{!6, !6, i64 0}
!6 = !{!"omnipotent char", !7, i64 0}
!7 = !{!"Simple C/C++ TBAA"}
!8 = distinct !{!8, !9}
!9 = !{!"llvm.loop.mustprogress"}
!10 = distinct !{!10, !9}
